; Function Attrs: mustprogress uwtable
define dso_local noundef zeroext i1 @_ZN9struct_pb8internal14deserialize_toIN6google8protobuf19FileDescriptorProtoEEEbRT_PKcm(ptr noundef nonnull align 8 dereferenceable(344) %t, ptr noundef %data, i64 noundef %size) local_unnamed_addr #2 personality ptr @__gxx_personality_v0 {
entry:
  %unknown_fields = alloca %"struct.struct_pb::UnknownFields", align 8
  call void @llvm.memset.p0.i64(ptr noundef nonnull align 8 dereferenceable(24) %unknown_fields, i8 0, i64 24, i1 false)
  %call = invoke noundef zeroext i1 @_ZN9struct_pb8internal14deserialize_toIN6google8protobuf19FileDescriptorProtoEEEbRT_PKcmRNS_13UnknownFieldsE(ptr noundef nonnull align 8 dereferenceable(344) %t, ptr noundef %data, i64 noundef %size, ptr noundef nonnull align 8 dereferenceable(24) %unknown_fields)
          to label %invoke.cont unwind label %lpad

invoke.cont:                                      ; preds = %entry
  %0 = load ptr, ptr %unknown_fields, align 8
  %tobool.not.i.i.i.i = icmp eq ptr %0, null
  br i1 %tobool.not.i.i.i.i, label %_ZN9struct_pb13UnknownFieldsD2Ev.exit, label %if.then.i.i.i.i

if.then.i.i.i.i:                                  ; preds = %invoke.cont
  call void @_ZdlPv(ptr noundef nonnull %0) #17
  br label %_ZN9struct_pb13UnknownFieldsD2Ev.exit

_ZN9struct_pb13UnknownFieldsD2Ev.exit:            ; preds = %invoke.cont, %if.then.i.i.i.i
  ret i1 %call

lpad:                                             ; preds = %entry
  %1 = landingpad { ptr, i32 }
          cleanup
  %2 = load ptr, ptr %unknown_fields, align 8
  %tobool.not.i.i.i.i1 = icmp eq ptr %2, null
  br i1 %tobool.not.i.i.i.i1, label %_ZN9struct_pb13UnknownFieldsD2Ev.exit3, label %if.then.i.i.i.i2

if.then.i.i.i.i2:                                 ; preds = %lpad
  call void @_ZdlPv(ptr noundef nonnull %2) #17
  br label %_ZN9struct_pb13UnknownFieldsD2Ev.exit3

_ZN9struct_pb13UnknownFieldsD2Ev.exit3:           ; preds = %lpad, %if.then.i.i.i.i2
  resume { ptr, i32 } %1
}